target datalayout = "e-m:e-p270:32:32-p271:32:32-p272:64:64-i64:64-i128:128-f80:128-n8:16:32:64-S128"
target triple = "x86_64-pc-linux-gnu"

%struct.Vec_Ptr_t_ = type { i32, i32, ptr }
%struct.SC_Surface_ = type { ptr, %struct.Vec_Flt_t_, %struct.Vec_Flt_t_, %struct.Vec_Ptr_t_, %struct.Vec_Int_t_, %struct.Vec_Int_t_, %struct.Vec_Ptr_t_, [3 x [6 x float]] }
%struct.Vec_Flt_t_ = type { i32, i32, ptr }
%struct.Vec_Int_t_ = type { i32, i32, ptr }

; Function Attrs: inlinehint nounwind uwtable
define internal ptr @Vec_PtrEntry(ptr noundef %0, i32 noundef %1) #3 {
  %3 = alloca ptr, align 8
  %4 = alloca i32, align 4
  store ptr %0, ptr %3, align 8, !tbaa !96
  store i32 %1, ptr %4, align 4, !tbaa !53
  %5 = load ptr, ptr %3, align 8, !tbaa !96
  %6 = getelementptr inbounds nuw %struct.Vec_Ptr_t_, ptr %5, i32 0, i32 2
  %7 = load ptr, ptr %6, align 8, !tbaa !118
  %8 = load i32, ptr %4, align 4, !tbaa !53
  %9 = sext i32 %8 to i64
  %10 = getelementptr inbounds ptr, ptr %7, i64 %9
  %11 = load ptr, ptr %10, align 8, !tbaa !3
  ret ptr %11
}

; Function Attrs: inlinehint nounwind uwtable
define internal i32 @Vec_PtrSize(ptr noundef %0) #3 {
  %2 = alloca ptr, align 8
  store ptr %0, ptr %2, align 8, !tbaa !96
  %3 = load ptr, ptr %2, align 8, !tbaa !96
  %4 = getelementptr inbounds nuw %struct.Vec_Ptr_t_, ptr %3, i32 0, i32 1
  %5 = load i32, ptr %4, align 4, !tbaa !117
  ret i32 %5
}

; Function Attrs: inlinehint nounwind uwtable
define internal float @Vec_FltEntry(ptr noundef %0, i32 noundef %1) #3 {
  %3 = alloca ptr, align 8
  %4 = alloca i32, align 4
  store ptr %0, ptr %3, align 8, !tbaa !144
  store i32 %1, ptr %4, align 4, !tbaa !53
  %5 = load ptr, ptr %3, align 8, !tbaa !144
  %6 = getelementptr inbounds nuw %struct.Vec_Flt_t_, ptr %5, i32 0, i32 2
  %7 = load ptr, ptr %6, align 8, !tbaa !152
  %8 = load i32, ptr %4, align 4, !tbaa !53
  %9 = sext i32 %8 to i64
  %10 = getelementptr inbounds float, ptr %7, i64 %9
  %11 = load float, ptr %10, align 4, !tbaa !138
  ret float %11
}

; Function Attrs: inlinehint nounwind uwtable
define internal i32 @Vec_FltSize(ptr noundef %0) #3 {
  %2 = alloca ptr, align 8
  store ptr %0, ptr %2, align 8, !tbaa !144
  %3 = load ptr, ptr %2, align 8, !tbaa !144
  %4 = getelementptr inbounds nuw %struct.Vec_Flt_t_, ptr %3, i32 0, i32 1
  %5 = load i32, ptr %4, align 4, !tbaa !150
  ret i32 %5
}

; Function Attrs: nounwind uwtable
define internal void @Abc_SclWriteSurface(ptr noundef %0, ptr noundef %1) #0 {
  %3 = alloca ptr, align 8
  %4 = alloca ptr, align 8
  %5 = alloca ptr, align 8
  %6 = alloca float, align 4
  %7 = alloca i32, align 4
  %8 = alloca i32, align 4
  store ptr %0, ptr %3, align 8, !tbaa !76
  store ptr %1, ptr %4, align 8, !tbaa !142
  call void @llvm.lifetime.start.p0(i64 8, ptr %5) #11
  call void @llvm.lifetime.start.p0(i64 4, ptr %6) #11
  call void @llvm.lifetime.start.p0(i64 4, ptr %7) #11
  call void @llvm.lifetime.start.p0(i64 4, ptr %8) #11
  %9 = load ptr, ptr %3, align 8, !tbaa !76
  %10 = load ptr, ptr %4, align 8, !tbaa !142
  %11 = getelementptr inbounds nuw %struct.SC_Surface_, ptr %10, i32 0, i32 1
  %12 = call i32 @Vec_FltSize(ptr noundef %11)
  call void @Vec_StrPutI(ptr noundef %9, i32 noundef %12)
  store i32 0, ptr %7, align 4, !tbaa !53
  br label %13

13:                                               ; preds = %29, %2
  %14 = load i32, ptr %7, align 4, !tbaa !53
  %15 = load ptr, ptr %4, align 8, !tbaa !142
  %16 = getelementptr inbounds nuw %struct.SC_Surface_, ptr %15, i32 0, i32 1
  %17 = call i32 @Vec_FltSize(ptr noundef %16)
  %18 = icmp slt i32 %14, %17
  br i1 %18, label %19, label %24

19:                                               ; preds = %13
  %20 = load ptr, ptr %4, align 8, !tbaa !142
  %21 = getelementptr inbounds nuw %struct.SC_Surface_, ptr %20, i32 0, i32 1
  %22 = load i32, ptr %7, align 4, !tbaa !53
  %23 = call float @Vec_FltEntry(ptr noundef %21, i32 noundef %22)
  store float %23, ptr %6, align 4, !tbaa !138
  br label %24

24:                                               ; preds = %19, %13
  %25 = phi i1 [ false, %13 ], [ true, %19 ]
  br i1 %25, label %26, label %32

26:                                               ; preds = %24
  %27 = load ptr, ptr %3, align 8, !tbaa !76
  %28 = load float, ptr %6, align 4, !tbaa !138
  call void @Vec_StrPutF(ptr noundef %27, float noundef %28)
  br label %29

29:                                               ; preds = %26
  %30 = load i32, ptr %7, align 4, !tbaa !53
  %31 = add nsw i32 %30, 1
  store i32 %31, ptr %7, align 4, !tbaa !53
  br label %13, !llvm.loop !175

32:                                               ; preds = %24
  %33 = load ptr, ptr %3, align 8, !tbaa !76
  %34 = load ptr, ptr %4, align 8, !tbaa !142
  %35 = getelementptr inbounds nuw %struct.SC_Surface_, ptr %34, i32 0, i32 2
  %36 = call i32 @Vec_FltSize(ptr noundef %35)
  call void @Vec_StrPutI(ptr noundef %33, i32 noundef %36)
  store i32 0, ptr %7, align 4, !tbaa !53
  br label %37

37:                                               ; preds = %53, %32
  %38 = load i32, ptr %7, align 4, !tbaa !53
  %39 = load ptr, ptr %4, align 8, !tbaa !142
  %40 = getelementptr inbounds nuw %struct.SC_Surface_, ptr %39, i32 0, i32 2
  %41 = call i32 @Vec_FltSize(ptr noundef %40)
  %42 = icmp slt i32 %38, %41
  br i1 %42, label %43, label %48

43:                                               ; preds = %37
  %44 = load ptr, ptr %4, align 8, !tbaa !142
  %45 = getelementptr inbounds nuw %struct.SC_Surface_, ptr %44, i32 0, i32 2
  %46 = load i32, ptr %7, align 4, !tbaa !53
  %47 = call float @Vec_FltEntry(ptr noundef %45, i32 noundef %46)
  store float %47, ptr %6, align 4, !tbaa !138
  br label %48

48:                                               ; preds = %43, %37
  %49 = phi i1 [ false, %37 ], [ true, %43 ]
  br i1 %49, label %50, label %56

50:                                               ; preds = %48
  %51 = load ptr, ptr %3, align 8, !tbaa !76
  %52 = load float, ptr %6, align 4, !tbaa !138
  call void @Vec_StrPutF(ptr noundef %51, float noundef %52)
  br label %53

53:                                               ; preds = %50
  %54 = load i32, ptr %7, align 4, !tbaa !53
  %55 = add nsw i32 %54, 1
  store i32 %55, ptr %7, align 4, !tbaa !53
  br label %37, !llvm.loop !176

56:                                               ; preds = %48
  store i32 0, ptr %7, align 4, !tbaa !53
  br label %57

57:                                               ; preds = %89, %56
  %58 = load i32, ptr %7, align 4, !tbaa !53
  %59 = load ptr, ptr %4, align 8, !tbaa !142
  %60 = getelementptr inbounds nuw %struct.SC_Surface_, ptr %59, i32 0, i32 3
  %61 = call i32 @Vec_PtrSize(ptr noundef %60)
  %62 = icmp slt i32 %58, %61
  br i1 %62, label %63, label %68

63:                                               ; preds = %57
  %64 = load ptr, ptr %4, align 8, !tbaa !142
  %65 = getelementptr inbounds nuw %struct.SC_Surface_, ptr %64, i32 0, i32 3
  %66 = load i32, ptr %7, align 4, !tbaa !53
  %67 = call ptr @Vec_PtrEntry(ptr noundef %65, i32 noundef %66)
  store ptr %67, ptr %5, align 8, !tbaa !144
  br label %68

68:                                               ; preds = %63, %57
  %69 = phi i1 [ false, %57 ], [ true, %63 ]
  br i1 %69, label %70, label %92

70:                                               ; preds = %68
  store i32 0, ptr %8, align 4, !tbaa !53
  br label %71

71:                                               ; preds = %85, %70
  %72 = load i32, ptr %8, align 4, !tbaa !53
  %73 = load ptr, ptr %5, align 8, !tbaa !144
  %74 = call i32 @Vec_FltSize(ptr noundef %73)
  %75 = icmp slt i32 %72, %74
  br i1 %75, label %76, label %80

76:                                               ; preds = %71
  %77 = load ptr, ptr %5, align 8, !tbaa !144
  %78 = load i32, ptr %8, align 4, !tbaa !53
  %79 = call float @Vec_FltEntry(ptr noundef %77, i32 noundef %78)
  store float %79, ptr %6, align 4, !tbaa !138
  br label %80

80:                                               ; preds = %76, %71
  %81 = phi i1 [ false, %71 ], [ true, %76 ]
  br i1 %81, label %82, label %88

82:                                               ; preds = %80
  %83 = load ptr, ptr %3, align 8, !tbaa !76
  %84 = load float, ptr %6, align 4, !tbaa !138
  call void @Vec_StrPutF(ptr noundef %83, float noundef %84)
  br label %85

85:                                               ; preds = %82
  %86 = load i32, ptr %8, align 4, !tbaa !53
  %87 = add nsw i32 %86, 1
  store i32 %87, ptr %8, align 4, !tbaa !53
  br label %71, !llvm.loop !177

88:                                               ; preds = %80
  br label %89

89:                                               ; preds = %88
  %90 = load i32, ptr %7, align 4, !tbaa !53
  %91 = add nsw i32 %90, 1
  store i32 %91, ptr %7, align 4, !tbaa !53
  br label %57, !llvm.loop !178

92:                                               ; preds = %68
  store i32 0, ptr %7, align 4, !tbaa !53
  br label %93

93:                                               ; preds = %105, %92
  %94 = load i32, ptr %7, align 4, !tbaa !53
  %95 = icmp slt i32 %94, 3
  br i1 %95, label %96, label %108

96:                                               ; preds = %93
  %97 = load ptr, ptr %3, align 8, !tbaa !76
  %98 = load ptr, ptr %4, align 8, !tbaa !142
  %99 = getelementptr inbounds nuw %struct.SC_Surface_, ptr %98, i32 0, i32 7
  %100 = getelementptr inbounds [3 x [6 x float]], ptr %99, i64 0, i64 0
  %101 = load i32, ptr %7, align 4, !tbaa !53
  %102 = sext i32 %101 to i64
  %103 = getelementptr inbounds [6 x float], ptr %100, i64 0, i64 %102
  %104 = load float, ptr %103, align 4, !tbaa !138
  call void @Vec_StrPutF(ptr noundef %97, float noundef %104)
  br label %105

105:                                              ; preds = %96
  %106 = load i32, ptr %7, align 4, !tbaa !53
  %107 = add nsw i32 %106, 1
  store i32 %107, ptr %7, align 4, !tbaa !53
  br label %93, !llvm.loop !179

108:                                              ; preds = %93
  store i32 0, ptr %7, align 4, !tbaa !53
  br label %109

109:                                              ; preds = %121, %108
  %110 = load i32, ptr %7, align 4, !tbaa !53
  %111 = icmp slt i32 %110, 4
  br i1 %111, label %112, label %124

112:                                              ; preds = %109
  %113 = load ptr, ptr %3, align 8, !tbaa !76
  %114 = load ptr, ptr %4, align 8, !tbaa !142
  %115 = getelementptr inbounds nuw %struct.SC_Surface_, ptr %114, i32 0, i32 7
  %116 = getelementptr inbounds [3 x [6 x float]], ptr %115, i64 0, i64 1
  %117 = load i32, ptr %7, align 4, !tbaa !53
  %118 = sext i32 %117 to i64
  %119 = getelementptr inbounds [6 x float], ptr %116, i64 0, i64 %118
  %120 = load float, ptr %119, align 4, !tbaa !138
  call void @Vec_StrPutF(ptr noundef %113, float noundef %120)
  br label %121

121:                                              ; preds = %112
  %122 = load i32, ptr %7, align 4, !tbaa !53
  %123 = add nsw i32 %122, 1
  store i32 %123, ptr %7, align 4, !tbaa !53
  br label %109, !llvm.loop !180

124:                                              ; preds = %109
  store i32 0, ptr %7, align 4, !tbaa !53
  br label %125

125:                                              ; preds = %137, %124
  %126 = load i32, ptr %7, align 4, !tbaa !53
  %127 = icmp slt i32 %126, 6
  br i1 %127, label %128, label %140

128:                                              ; preds = %125
  %129 = load ptr, ptr %3, align 8, !tbaa !76
  %130 = load ptr, ptr %4, align 8, !tbaa !142
  %131 = getelementptr inbounds nuw %struct.SC_Surface_, ptr %130, i32 0, i32 7
  %132 = getelementptr inbounds [3 x [6 x float]], ptr %131, i64 0, i64 2
  %133 = load i32, ptr %7, align 4, !tbaa !53
  %134 = sext i32 %133 to i64
  %135 = getelementptr inbounds [6 x float], ptr %132, i64 0, i64 %134
  %136 = load float, ptr %135, align 4, !tbaa !138
  call void @Vec_StrPutF(ptr noundef %129, float noundef %136)
  br label %137

137:                                              ; preds = %128
  %138 = load i32, ptr %7, align 4, !tbaa !53
  %139 = add nsw i32 %138, 1
  store i32 %139, ptr %7, align 4, !tbaa !53
  br label %125, !llvm.loop !181

140:                                              ; preds = %125
  call void @llvm.lifetime.end.p0(i64 4, ptr %8) #11
  call void @llvm.lifetime.end.p0(i64 4, ptr %7) #11
  call void @llvm.lifetime.end.p0(i64 4, ptr %6) #11
  call void @llvm.lifetime.end.p0(i64 8, ptr %5) #11
  ret void
}