; Function Attrs: nounwind uwtable
define internal fastcc void @Abc_SclWriteSurface(ptr noundef captures(none) %0, ptr noundef readonly captures(none) %1) unnamed_addr #0 {
  %3 = getelementptr i8, ptr %1, i64 12
  %.val55 = load i32, ptr %3, align 4, !tbaa !74
  tail call fastcc void @Vec_StrPutI(ptr noundef %0, i32 noundef %.val55)
  %.val5461 = load i32, ptr %3, align 4, !tbaa !74
  %4 = icmp sgt i32 %.val5461, 0
  br i1 %4, label %.lr.ph, label %.critedge

.lr.ph:                                           ; preds = %2
  %5 = getelementptr i8, ptr %1, i64 16
  br label %6

6:                                                ; preds = %.lr.ph, %6
  %indvars.iv = phi i64 [ 0, %.lr.ph ], [ %indvars.iv.next, %6 ]
  %.val59 = load ptr, ptr %5, align 8, !tbaa !76
  %7 = getelementptr inbounds nuw float, ptr %.val59, i64 %indvars.iv
  %8 = load float, ptr %7, align 4, !tbaa !77
  tail call fastcc void @Vec_StrPutF(ptr noundef %0, float noundef %8)
  %indvars.iv.next = add nuw nsw i64 %indvars.iv, 1
  %.val54 = load i32, ptr %3, align 4, !tbaa !74
  %9 = sext i32 %.val54 to i64
  %10 = icmp slt i64 %indvars.iv.next, %9
  br i1 %10, label %6, label %.critedge, !llvm.loop !141

.critedge:                                        ; preds = %6, %2
  %11 = getelementptr i8, ptr %1, i64 28
  %.val53 = load i32, ptr %11, align 4, !tbaa !74
  tail call fastcc void @Vec_StrPutI(ptr noundef %0, i32 noundef %.val53)
  %.val5263 = load i32, ptr %11, align 4, !tbaa !74
  %12 = icmp sgt i32 %.val5263, 0
  br i1 %12, label %.lr.ph65, label %.critedge2.preheader

.lr.ph65:                                         ; preds = %.critedge
  %13 = getelementptr i8, ptr %1, i64 32
  br label %17

.critedge2.preheader:                             ; preds = %17, %.critedge
  %14 = getelementptr i8, ptr %1, i64 44
  %.val69 = load i32, ptr %14, align 4, !tbaa !21
  %15 = icmp sgt i32 %.val69, 0
  br i1 %15, label %.lr.ph71, label %.critedge4.preheader

.lr.ph71:                                         ; preds = %.critedge2.preheader
  %16 = getelementptr i8, ptr %1, i64 48
  br label %23

17:                                               ; preds = %.lr.ph65, %17
  %indvars.iv76 = phi i64 [ 0, %.lr.ph65 ], [ %indvars.iv.next77, %17 ]
  %.val58 = load ptr, ptr %13, align 8, !tbaa !76
  %18 = getelementptr inbounds nuw float, ptr %.val58, i64 %indvars.iv76
  %19 = load float, ptr %18, align 4, !tbaa !77
  tail call fastcc void @Vec_StrPutF(ptr noundef %0, float noundef %19)
  %indvars.iv.next77 = add nuw nsw i64 %indvars.iv76, 1
  %.val52 = load i32, ptr %11, align 4, !tbaa !74
  %20 = sext i32 %.val52 to i64
  %21 = icmp slt i64 %indvars.iv.next77, %20
  br i1 %21, label %17, label %.critedge2.preheader, !llvm.loop !142

.critedge4.preheader:                             ; preds = %.critedge6, %.critedge2.preheader
  %22 = getelementptr inbounds nuw i8, ptr %1, i64 104
  br label %.critedge4

23:                                               ; preds = %.lr.ph71, %.critedge6
  %.val96 = phi i32 [ %.val69, %.lr.ph71 ], [ %.val, %.critedge6 ]
  %indvars.iv82 = phi i64 [ 0, %.lr.ph71 ], [ %indvars.iv.next83, %.critedge6 ]
  %.val56 = load ptr, ptr %16, align 8, !tbaa !19
  %24 = getelementptr inbounds nuw ptr, ptr %.val56, i64 %indvars.iv82
  %25 = load ptr, ptr %24, align 8, !tbaa !22
  %26 = getelementptr i8, ptr %25, i64 4
  %.val5166 = load i32, ptr %26, align 4, !tbaa !74
  %27 = icmp sgt i32 %.val5166, 0
  br i1 %27, label %.lr.ph68, label %.critedge6

.lr.ph68:                                         ; preds = %23
  %28 = getelementptr i8, ptr %25, i64 8
  br label %29

29:                                               ; preds = %.lr.ph68, %29
  %indvars.iv79 = phi i64 [ 0, %.lr.ph68 ], [ %indvars.iv.next80, %29 ]
  %.val57 = load ptr, ptr %28, align 8, !tbaa !76
  %30 = getelementptr inbounds nuw float, ptr %.val57, i64 %indvars.iv79
  %31 = load float, ptr %30, align 4, !tbaa !77
  tail call fastcc void @Vec_StrPutF(ptr noundef %0, float noundef %31)
  %indvars.iv.next80 = add nuw nsw i64 %indvars.iv79, 1
  %.val51 = load i32, ptr %26, align 4, !tbaa !74
  %32 = sext i32 %.val51 to i64
  %33 = icmp slt i64 %indvars.iv.next80, %32
  br i1 %33, label %29, label %.critedge6.loopexit, !llvm.loop !143

.critedge6.loopexit:                              ; preds = %29
  %.val.pre = load i32, ptr %14, align 4, !tbaa !21
  br label %.critedge6

.critedge6:                                       ; preds = %.critedge6.loopexit, %23
  %.val = phi i32 [ %.val.pre, %.critedge6.loopexit ], [ %.val96, %23 ]
  %indvars.iv.next83 = add nuw nsw i64 %indvars.iv82, 1
  %34 = sext i32 %.val to i64
  %35 = icmp slt i64 %indvars.iv.next83, %34
  br i1 %35, label %23, label %.critedge4.preheader, !llvm.loop !144

.preheader60:                                     ; preds = %.critedge4
  %36 = getelementptr inbounds nuw i8, ptr %1, i64 128
  br label %40

.critedge4:                                       ; preds = %.critedge4.preheader, %.critedge4
  %indvars.iv85 = phi i64 [ 0, %.critedge4.preheader ], [ %indvars.iv.next86, %.critedge4 ]
  %37 = getelementptr inbounds nuw [6 x float], ptr %22, i64 0, i64 %indvars.iv85
  %38 = load float, ptr %37, align 4, !tbaa !77
  tail call fastcc void @Vec_StrPutF(ptr noundef %0, float noundef %38)
  %indvars.iv.next86 = add nuw nsw i64 %indvars.iv85, 1
  %exitcond.not = icmp eq i64 %indvars.iv.next86, 3
  br i1 %exitcond.not, label %.preheader60, label %.critedge4, !llvm.loop !145

.preheader:                                       ; preds = %40
  %39 = getelementptr inbounds nuw i8, ptr %1, i64 152
  br label %43

40:                                               ; preds = %.preheader60, %40
  %indvars.iv88 = phi i64 [ 0, %.preheader60 ], [ %indvars.iv.next89, %40 ]
  %41 = getelementptr inbounds nuw [6 x float], ptr %36, i64 0, i64 %indvars.iv88
  %42 = load float, ptr %41, align 4, !tbaa !77
  tail call fastcc void @Vec_StrPutF(ptr noundef %0, float noundef %42)
  %indvars.iv.next89 = add nuw nsw i64 %indvars.iv88, 1
  %exitcond91.not = icmp eq i64 %indvars.iv.next89, 4
  br i1 %exitcond91.not, label %.preheader, label %40, !llvm.loop !146

43:                                               ; preds = %.preheader, %43
  %indvars.iv92 = phi i64 [ 0, %.preheader ], [ %indvars.iv.next93, %43 ]
  %44 = getelementptr inbounds nuw [6 x float], ptr %39, i64 0, i64 %indvars.iv92
  %45 = load float, ptr %44, align 4, !tbaa !77
  tail call fastcc void @Vec_StrPutF(ptr noundef %0, float noundef %45)
  %indvars.iv.next93 = add nuw nsw i64 %indvars.iv92, 1
  %exitcond95.not = icmp eq i64 %indvars.iv.next93, 6
  br i1 %exitcond95.not, label %46, label %43, !llvm.loop !147

46:                                               ; preds = %43
  ret void
}